target datalayout = "e-m:e-p270:32:32-p271:32:32-p272:64:64-i64:64-i128:128-f80:128-n8:16:32:64-S128"
target triple = "x86_64-pc-linux-gnu"

@hf_afp_long_name_offset = internal global i32 0, align 4
@hf_afp_path_len = internal global i32 0, align 4
@hf_afp_path_name = internal global i32 0, align 4

; Function Attrs: null_pointer_is_valid sspstrong uwtable
define internal i32 @parse_long_filename(ptr noundef %0, ptr noundef %1, i32 noundef %2, i32 noundef %3) #1 {
  %5 = alloca ptr, align 8
  %6 = alloca ptr, align 8
  %7 = alloca i32, align 4
  %8 = alloca i32, align 4
  %9 = alloca i16, align 2
  %10 = alloca i32, align 4
  %11 = alloca i8, align 1
  store ptr %0, ptr %5, align 8
  store ptr %1, ptr %6, align 8
  store i32 %2, ptr %7, align 4
  store i32 %3, ptr %8, align 4
  call void @llvm.lifetime.start.p0(i64 2, ptr %9) #8
  call void @llvm.lifetime.start.p0(i64 4, ptr %10) #8
  store i32 0, ptr %10, align 4
  call void @llvm.lifetime.start.p0(i64 1, ptr %11) #8
  %12 = load ptr, ptr %6, align 8
  %13 = load i32, ptr %7, align 4
  %14 = call zeroext i16 @tvb_get_ntohs(ptr noundef %12, i32 noundef %13)
  store i16 %14, ptr %9, align 2
  %15 = load ptr, ptr %5, align 8
  %16 = load i32, ptr @hf_afp_long_name_offset, align 4
  %17 = load ptr, ptr %6, align 8
  %18 = load i32, ptr %7, align 4
  %19 = call ptr @proto_tree_add_item(ptr noundef %15, i32 noundef %16, ptr noundef %17, i32 noundef %18, i32 noundef 2, i32 noundef 0)
  %20 = load i16, ptr %9, align 2
  %21 = icmp ne i16 %20, 0
  br i1 %21, label %22, label %48

22:                                               ; preds = %4
  %23 = load i16, ptr %9, align 2
  %24 = zext i16 %23 to i32
  %25 = load i32, ptr %8, align 4
  %26 = add i32 %24, %25
  store i32 %26, ptr %10, align 4
  %27 = load ptr, ptr %6, align 8
  %28 = load i32, ptr %10, align 4
  %29 = call zeroext i8 @tvb_get_uint8(ptr noundef %27, i32 noundef %28)
  store i8 %29, ptr %11, align 1
  %30 = load ptr, ptr %5, align 8
  %31 = load i32, ptr @hf_afp_path_len, align 4
  %32 = load ptr, ptr %6, align 8
  %33 = load i32, ptr %10, align 4
  %34 = call ptr @proto_tree_add_item(ptr noundef %30, i32 noundef %31, ptr noundef %32, i32 noundef %33, i32 noundef 1, i32 noundef 0)
  %35 = load i32, ptr %10, align 4
  %36 = add i32 %35, 1
  store i32 %36, ptr %10, align 4
  %37 = load ptr, ptr %5, align 8
  %38 = load i32, ptr @hf_afp_path_name, align 4
  %39 = load ptr, ptr %6, align 8
  %40 = load i32, ptr %10, align 4
  %41 = load i8, ptr %11, align 1
  %42 = zext i8 %41 to i32
  %43 = call ptr @proto_tree_add_item(ptr noundef %37, i32 noundef %38, ptr noundef %39, i32 noundef %40, i32 noundef %42, i32 noundef 2)
  %44 = load i8, ptr %11, align 1
  %45 = zext i8 %44 to i32
  %46 = load i32, ptr %10, align 4
  %47 = add i32 %46, %45
  store i32 %47, ptr %10, align 4
  br label %48

48:                                               ; preds = %22, %4
  %49 = load i32, ptr %10, align 4
  call void @llvm.lifetime.end.p0(i64 1, ptr %11) #8
  call void @llvm.lifetime.end.p0(i64 4, ptr %10) #8
  call void @llvm.lifetime.end.p0(i64 2, ptr %9) #8
  ret i32 %49
}