; Function Attrs: null_pointer_is_valid sspstrong uwtable
define internal fastcc noundef i32 @parse_long_filename(ptr noundef %0, ptr noundef %1, i32 noundef %2, i32 noundef %3) unnamed_addr #1 {
  %5 = tail call zeroext i16 @tvb_get_ntohs(ptr noundef %1, i32 noundef %2)
  %6 = load i32, ptr @hf_afp_long_name_offset, align 4
  %7 = tail call ptr @proto_tree_add_item(ptr noundef %0, i32 noundef %6, ptr noundef %1, i32 noundef %2, i32 noundef 2, i32 noundef 0)
  %.not = icmp eq i16 %5, 0
  br i1 %.not, label %19, label %8

8:                                                ; preds = %4
  %9 = zext i16 %5 to i32
  %10 = add i32 %3, %9
  %11 = tail call zeroext i8 @tvb_get_uint8(ptr noundef %1, i32 noundef %10)
  %12 = load i32, ptr @hf_afp_path_len, align 4
  %13 = tail call ptr @proto_tree_add_item(ptr noundef %0, i32 noundef %12, ptr noundef %1, i32 noundef %10, i32 noundef 1, i32 noundef 0)
  %14 = add i32 %10, 1
  %15 = load i32, ptr @hf_afp_path_name, align 4
  %16 = zext i8 %11 to i32
  %17 = tail call ptr @proto_tree_add_item(ptr noundef %0, i32 noundef %15, ptr noundef %1, i32 noundef %14, i32 noundef %16, i32 noundef 2)
  %18 = add i32 %14, %16
  br label %19

19:                                               ; preds = %8, %4
  %.0 = phi i32 [ %18, %8 ], [ 0, %4 ]
  ret i32 %.0
}